; ModuleID = 'bench/c3c/original/time.c.ll'
source_filename = "bench/c3c/original/time.c.ll"
target datalayout = "e-m:e-p270:32:32-p271:32:32-p272:64:64-i64:64-i128:128-f80:128-n8:16:32:64-S128"
target triple = "x86_64-pc-linux-gnu"

@.str = private unnamed_addr constant [15 x i8] c"%02d:%02d:%02d\00", align 1
@.str.1 = private unnamed_addr constant [15 x i8] c"%02d-%02d-%02d\00", align 1

; Function Attrs: nounwind uwtable
define dso_local ptr @time_get() local_unnamed_addr #0 {
  %1 = alloca i64, align 8
  %2 = call i64 @time(ptr noundef nonnull %1) #3
  %3 = call ptr @localtime(ptr noundef nonnull %1) #3
  call void @scratch_buffer_clear() #3
  %4 = getelementptr inbounds i8, ptr %3, i64 8
  %5 = load i32, ptr %4, align 8
  %6 = getelementptr inbounds i8, ptr %3, i64 4
  %7 = load i32, ptr %6, align 4
  %8 = load i32, ptr %3, align 8
  call void (ptr, ...) @scratch_buffer_printf(ptr noundef nonnull @.str, i32 noundef %5, i32 noundef %7, i32 noundef %8) #3
  %9 = call ptr @scratch_buffer_copy() #3
  ret ptr %9
}

; Function Attrs: nounwind
declare i64 @time(ptr noundef) local_unnamed_addr #1

; Function Attrs: nounwind
declare ptr @localtime(ptr noundef) local_unnamed_addr #1

declare void @scratch_buffer_clear() local_unnamed_addr #2

declare void @scratch_buffer_printf(ptr noundef, ...) local_unnamed_addr #2

declare ptr @scratch_buffer_copy() local_unnamed_addr #2

; Function Attrs: nounwind uwtable
define dso_local ptr @date_get() local_unnamed_addr #0 {
  %1 = alloca i64, align 8
  %2 = call i64 @time(ptr noundef nonnull %1) #3
  %3 = call ptr @localtime(ptr noundef nonnull %1) #3
  call void @scratch_buffer_clear() #3
  %4 = getelementptr inbounds i8, ptr %3, i64 20
  %5 = load i32, ptr %4, align 4
  %6 = add nsw i32 %5, 1900
  %7 = getelementptr inbounds i8, ptr %3, i64 16
  %8 = load i32, ptr %7, align 8
  %9 = add nsw i32 %8, 1
  %10 = getelementptr inbounds i8, ptr %3, i64 12
  %11 = load i32, ptr %10, align 4
  call void (ptr, ...) @scratch_buffer_printf(ptr noundef nonnull @.str.1, i32 noundef %6, i32 noundef %9, i32 noundef %11) #3
  %12 = call ptr @scratch_buffer_copy() #3
  ret ptr %12
}


!llvm.module.flags = !{!0, !1, !2, !3, !4, !5, !6}

!0 = !{i32 7, !"Dwarf Version", i32 3}
!1 = !{i32 2, !"Debug Info Version", i32 3}
!2 = !{i32 1, !"wchar_size", i32 4}
!3 = !{i32 8, !"PIC Level", i32 2}
!4 = !{i32 7, !"PIE Level", i32 2}
!5 = !{i32 7, !"uwtable", i32 2}
!6 = !{i32 7, !"frame-pointer", i32 2}
